Certificate:
    Data:
        Version: 3 (0x2)
        Serial Number: 14962384448349602581 (0xcfa51161b4b50315)
    Signature Algorithm: sha256WithRSAEncryption
        Issuer: C=US, ST=New-York, L=New York, O=Overview Services Inc., CN=localhost
        Validity
            Not Before: Feb 24 23:20:48 2015 GMT
            Not After : Mar 26 23:20:48 2015 GMT
        Subject: C=US, ST=New-York, L=New York, O=Overview Services Inc., CN=localhost
        Subject Public Key Info:
            Public Key Algorithm: rsaEncryption
                Public-Key: (2048 bit)
                Modulus:
                    00:be:8e:7d:91:50:e5:8f:af:60:f9:8b:c0:e7:37:
                    31:22:3b:b4:52:64:b8:ac:65:46:0f:42:88:a0:d3:
                    0f:d8:a3:34:28:8e:a7:10:b9:64:05:53:a1:fb:8f:
                    49:1b:7b:32:d5:b7:89:f1:b5:8e:a2:9c:c6:41:50:
                    0d:bd:25:99:58:db:ff:99:c8:e4:d3:45:fa:61:19:
                    f7:39:cf:f9:79:ed:e7:35:9e:92:6f:58:3c:7e:de:
                    d9:51:97:fe:e6:21:94:3a:1c:61:61:ac:56:74:db:
                    09:59:e6:c9:bc:c4:03:47:ab:62:e4:4f:e6:a2:eb:
                    ea:7b:7a:7e:7b:d6:ea:7e:4e:0e:cc:4a:64:8f:ae:
                    e1:b8:6f:b2:f5:c5:9f:39:65:0d:e1:c8:e7:61:80:
                    4b:73:e4:b0:2e:46:21:da:42:cc:50:e5:81:13:98:
                    66:d0:b3:88:e6:ee:76:85:00:57:1c:ef:dd:b8:44:
                    f6:d1:e0:f6:10:85:9c:e3:40:d4:fd:6a:11:bb:e2:
                    2e:ed:20:50:94:41:ca:9c:e9:24:b1:31:50:da:78:
                    f9:31:0f:74:07:f1:f9:1e:a0:18:50:8c:df:53:5d:
                    ac:16:fa:cf:15:d0:ab:ec:2b:26:93:99:98:e9:41:
                    1c:13:82:c8:3e:0c:44:bc:88:07:81:d5:f4:7f:79:
                    30:b3
                Exponent: 65537 (0x10001)
        X509v3 extensions:
            X509v3 Subject Key Identifier: 
                C4:2B:CC:0E:BD:7B:93:33:D6:24:36:3E:06:70:73:33:0A:A9:C1:33
            X509v3 Authority Key Identifier: 
                keyid:C4:2B:CC:0E:BD:7B:93:33:D6:24:36:3E:06:70:73:33:0A:A9:C1:33

            X509v3 Basic Constraints: 
                CA:TRUE
    Signature Algorithm: sha256WithRSAEncryption
         a1:02:00:de:9a:bb:2e:39:94:bd:bb:2c:09:f6:61:fa:3d:bb:
         16:1a:fe:20:cb:4c:4f:5f:ab:25:52:72:4b:f7:24:ab:4e:f3:
         c0:f5:a3:4b:31:04:af:b1:c7:0f:28:fb:ee:9b:ba:a3:65:b8:
         6c:77:7b:f4:13:4b:c1:08:03:dd:f4:8b:13:c0:3b:b8:5e:02:
         a8:ba:97:a8:01:89:26:f1:06:d0:67:cf:8e:9b:4f:8a:29:09:
         5c:60:47:af:92:bc:7c:ed:88:18:6f:4b:58:91:87:45:c8:d1:
         10:54:75:0e:63:0d:1c:7b:2e:c5:33:5e:b7:b8:29:40:ca:61:
         c3:64:96:a0:6d:25:e9:2c:70:5a:4b:a6:e1:e6:7e:d3:4d:99:
         19:08:bb:4e:4a:27:44:04:89:8a:aa:a0:4e:c5:ee:9e:74:26:
         89:41:eb:ac:1e:af:52:8a:61:54:94:a4:ee:d4:c7:55:f6:a7:
         04:88:9d:4c:ca:6a:4a:f2:c9:3e:51:c8:68:2f:cc:5c:cd:90:
         14:d0:4c:78:29:55:0f:d6:10:17:75:55:96:13:e8:3a:93:aa:
         2b:cf:e4:f8:0e:17:25:3c:45:c2:c0:bd:fa:7f:bb:df:9a:80:
         6d:55:17:ce:fc:f7:1d:71:16:f2:2f:77:3d:57:6a:bf:dc:df:
         0e:1c:9c:84
-----BEGIN CERTIFICATE-----
MIIDozCCAougAwIBAgIJAM+lEWG0tQMVMA0GCSqGSIb3DQEBCwUAMGgxCzAJBgNV
BAYTAlVTMREwDwYDVQQIDAhOZXctWW9yazERMA8GA1UEBwwITmV3IFlvcmsxHzAd
BgNVBAoMFk92ZXJ2aWV3IFNlcnZpY2VzIEluYy4xEjAQBgNVBAMMCWxvY2FsaG9z
dDAeFw0xNTAyMjQyMzIwNDhaFw0xNTAzMjYyMzIwNDhaMGgxCzAJBgNVBAYTAlVT
MREwDwYDVQQIDAhOZXctWW9yazERMA8GA1UEBwwITmV3IFlvcmsxHzAdBgNVBAoM
Fk92ZXJ2aWV3IFNlcnZpY2VzIEluYy4xEjAQBgNVBAMMCWxvY2FsaG9zdDCCASIw
DQYJKoZIhvcNAQEBBQADggEPADCCAQoCggEBAL6OfZFQ5Y+vYPmLwOc3MSI7tFJk
uKxlRg9CiKDTD9ijNCiOpxC5ZAVTofuPSRt7MtW3ifG1jqKcxkFQDb0lmVjb/5nI
5NNF+mEZ9znP+Xnt5zWekm9YPH7e2VGX/uYhlDocYWGsVnTbCVnmybzEA0erYuRP
5qLr6nt6fnvW6n5ODsxKZI+u4bhvsvXFnzllDeHI52GAS3PksC5GIdpCzFDlgROY
ZtCziObudoUAVxzv3bhE9tHg9hCFnONA1P1qEbviLu0gUJRBypzpJLExUNp4+TEP
dAfx+R6gGFCM31NdrBb6zxXQq+wrJpOZmOlBHBOCyD4MRLyIB4HV9H95MLMCAwEA
AaNQME4wHQYDVR0OBBYEFMQrzA69e5Mz1iQ2PgZwczMKqcEzMB8GA1UdIwQYMBaA
FMQrzA69e5Mz1iQ2PgZwczMKqcEzMAwGA1UdEwQFMAMBAf8wDQYJKoZIhvcNAQEL
BQADggEBAKECAN6auy45lL27LAn2Yfo9uxYa/iDLTE9fqyVSckv3JKtO88D1o0sx
BK+xxw8o++6buqNluGx3e/QTS8EIA930ixPAO7heAqi6l6gBiSbxBtBnz46bT4op
CVxgR6+SvHztiBhvS1iRh0XI0RBUdQ5jDRx7LsUzXre4KUDKYcNklqBtJekscFpL
puHmftNNmRkIu05KJ0QEiYqqoE7F7p50JolB66wer1KKYVSUpO7Ux1X2pwSInUzK
akryyT5RyGgvzFzNkBTQTHgpVQ/WEBd1VZYT6DqTqivP5PgOFyU8RcLAvfp/u9+a
gG1VF8789x1xFvIvdz1Xar/c3w4cnIQ=
-----END CERTIFICATE-----
